; Function Attrs: mustprogress uwtable
define void @_ZN8proxygen11SessionPool10attachIdleEPNS_13SessionHolderE(ptr noundef nonnull align 8 dereferenceable(136) %this, ptr noundef %sess) unnamed_addr #3 align 2 personality ptr @__gxx_personality_v0 {
entry:
  %maxConns_.i = getelementptr inbounds i8, ptr %this, i64 16
  %0 = load i32, ptr %maxConns_.i, align 8
  %cmp = icmp eq i32 %0, 0
  br i1 %cmp, label %if.then, label %lor.lhs.false

lor.lhs.false:                                    ; preds = %entry
  %call2 = tail call noundef nonnull align 8 dereferenceable(1582) ptr @_ZNK8proxygen13SessionHolder10getSessionEv(ptr noundef nonnull align 8 dereferenceable(152) %sess)
  %vtable = load ptr, ptr %call2, align 8
  %vfn = getelementptr inbounds i8, ptr %vtable, i64 192
  %1 = load ptr, ptr %vfn, align 8
  %call3 = tail call noundef zeroext i1 %1(ptr noundef nonnull align 8 dereferenceable(1582) %call2)
  br i1 %call3, label %lor.lhs.false4, label %if.then

lor.lhs.false4:                                   ; preds = %lor.lhs.false
  %maxAge_ = getelementptr inbounds i8, ptr %this, i64 32
  %agg.tmp.sroa.0.0.copyload = load i64, ptr %maxAge_, align 8
  %call5 = tail call noundef zeroext i1 @_ZNK8proxygen13SessionHolder12shouldAgeOutENSt6chrono8durationIlSt5ratioILl1ELl1000EEEE(ptr noundef nonnull align 8 dereferenceable(152) %sess, i64 %agg.tmp.sroa.0.0.copyload)
  br i1 %call5, label %if.then, label %if.else

if.then:                                          ; preds = %lor.lhs.false4, %lor.lhs.false, %entry
  %idleSessionList_ = getelementptr inbounds i8, ptr %this, i64 40
  %memptr.offset.i.i = getelementptr inbounds i8, ptr %sess, i64 8
  %m_header.i.i = getelementptr inbounds i8, ptr %this, i64 48
  %prev_.i8.i.i = getelementptr inbounds i8, ptr %this, i64 56
  %2 = load ptr, ptr %prev_.i8.i.i, align 8
  %prev_.i6.i.i = getelementptr inbounds i8, ptr %sess, i64 16
  store ptr %2, ptr %prev_.i6.i.i, align 8
  store ptr %m_header.i.i, ptr %memptr.offset.i.i, align 8
  store ptr %memptr.offset.i.i, ptr %prev_.i8.i.i, align 8
  store ptr %memptr.offset.i.i, ptr %2, align 8
  %3 = load i64, ptr %idleSessionList_, align 8
  %inc.i.i = add i64 %3, 1
  store i64 %inc.i.i, ptr %idleSessionList_, align 8
  tail call void @_ZN8proxygen13SessionHolder5drainEv(ptr noundef nonnull align 8 dereferenceable(152) %sess)
  br label %if.end14

if.else:                                          ; preds = %lor.lhs.false4
  %idleSessionList_6 = getelementptr inbounds i8, ptr %this, i64 40
  %memptr.offset.i.i8 = getelementptr inbounds i8, ptr %sess, i64 8
  %m_header.i.i9 = getelementptr inbounds i8, ptr %this, i64 48
  %prev_.i8.i.i10 = getelementptr inbounds i8, ptr %this, i64 56
  %4 = load ptr, ptr %prev_.i8.i.i10, align 8
  %prev_.i6.i.i11 = getelementptr inbounds i8, ptr %sess, i64 16
  store ptr %4, ptr %prev_.i6.i.i11, align 8
  store ptr %m_header.i.i9, ptr %memptr.offset.i.i8, align 8
  store ptr %memptr.offset.i.i8, ptr %prev_.i8.i.i10, align 8
  store ptr %memptr.offset.i.i8, ptr %4, align 8
  %5 = load i64, ptr %idleSessionList_6, align 8
  %inc.i.i12 = add i64 %5, 1
  store i64 %inc.i.i12, ptr %idleSessionList_6, align 8
  %serverIdleSessionController_ = getelementptr inbounds i8, ptr %this, i64 120
  %6 = load ptr, ptr %serverIdleSessionController_, align 8
  %tobool.not = icmp eq ptr %6, null
  br i1 %tobool.not, label %if.end, label %if.then7

if.then7:                                         ; preds = %if.else
  %call9 = tail call noundef nonnull align 8 dereferenceable(1582) ptr @_ZNK8proxygen13SessionHolder10getSessionEv(ptr noundef nonnull align 8 dereferenceable(152) %sess)
  tail call void @_ZN8proxygen27ServerIdleSessionController14addIdleSessionEPKNS_15HTTPSessionBaseEPNS_11SessionPoolE(ptr noundef nonnull align 8 dereferenceable(128) %6, ptr noundef nonnull %call9, ptr noundef nonnull %this)
  br label %if.end

if.end:                                           ; preds = %if.then7, %if.else
  %threadIdleSessionController_ = getelementptr inbounds i8, ptr %this, i64 112
  %7 = load ptr, ptr %threadIdleSessionController_, align 8
  %tobool10.not = icmp eq ptr %7, null
  br i1 %tobool10.not, label %if.end13, label %if.then11

if.then11:                                        ; preds = %if.end
  tail call void @_ZN8proxygen27ThreadIdleSessionController12onAttachIdleEPNS_13SessionHolderE(ptr noundef nonnull align 8 dereferenceable(32) %7, ptr noundef nonnull %sess)
  br label %if.end13

if.end13:                                         ; preds = %if.then11, %if.end
  tail call void @_ZN8proxygen11SessionPool23purgeExcessIdleSessionsEv(ptr noundef nonnull align 8 dereferenceable(136) %this)
  br label %if.end14

if.end14:                                         ; preds = %if.end13, %if.then
  ret void
}